target datalayout = "e-m:e-p270:32:32-p271:32:32-p272:64:64-i64:64-i128:128-f80:128-n8:16:32:64-S128"
target triple = "x86_64-pc-linux-gnu"

@.str.61 = private unnamed_addr constant [35 x i8] c"failed to initialize route plugins\00", align 1
@.str.62 = private unnamed_addr constant [40 x i8] c"slurm_send_recv_msgs: no nodelist given\00", align 1
@.str.63 = private unnamed_addr constant [48 x i8] c"slurm_send_recv_msgs: problem creating hostlist\00", align 1

; Function Attrs: nounwind uwtable
define dso_local ptr @slurm_send_recv_msgs(ptr noundef %0, ptr noundef %1, i32 noundef %2) #0 {
  %4 = alloca ptr, align 8
  %5 = alloca ptr, align 8
  %6 = alloca ptr, align 8
  %7 = alloca i32, align 4
  %8 = alloca ptr, align 8
  %9 = alloca ptr, align 8
  %10 = alloca i32, align 4
  store ptr %0, ptr %5, align 8
  store ptr %1, ptr %6, align 8
  store i32 %2, ptr %7, align 4
  call void @llvm.lifetime.start.p0(i64 8, ptr %8) #12
  store ptr null, ptr %8, align 8
  call void @llvm.lifetime.start.p0(i64 8, ptr %9) #12
  store ptr null, ptr %9, align 8
  %11 = call zeroext i1 @running_in_daemon()
  br i1 %11, label %18, label %12

12:                                               ; preds = %3
  %13 = call i32 @topology_g_init()
  %14 = icmp ne i32 %13, 0
  br i1 %14, label %15, label %17

15:                                               ; preds = %12
  %16 = call i32 (ptr, ...) @error(ptr noundef @.str.61)
  store ptr null, ptr %4, align 8
  store i32 1, ptr %10, align 4
  br label %41

17:                                               ; preds = %12
  br label %18

18:                                               ; preds = %17, %3
  %19 = load ptr, ptr %5, align 8
  %20 = icmp ne ptr %19, null
  br i1 %20, label %21, label %25

21:                                               ; preds = %18
  %22 = load ptr, ptr %5, align 8
  %23 = call i64 @strlen(ptr noundef %22) #13
  %24 = icmp ne i64 %23, 0
  br i1 %24, label %27, label %25

25:                                               ; preds = %21, %18
  %26 = call i32 (ptr, ...) @error(ptr noundef @.str.62)
  store ptr null, ptr %4, align 8
  store i32 1, ptr %10, align 4
  br label %41

27:                                               ; preds = %21
  %28 = load ptr, ptr %5, align 8
  %29 = call ptr @hostlist_create(ptr noundef %28)
  store ptr %29, ptr %9, align 8
  %30 = load ptr, ptr %9, align 8
  %31 = icmp ne ptr %30, null
  br i1 %31, label %34, label %32

32:                                               ; preds = %27
  %33 = call i32 (ptr, ...) @error(ptr noundef @.str.63)
  store ptr null, ptr %4, align 8
  store i32 1, ptr %10, align 4
  br label %41

34:                                               ; preds = %27
  %35 = load ptr, ptr %9, align 8
  %36 = load ptr, ptr %6, align 8
  %37 = load i32, ptr %7, align 4
  %38 = call ptr @start_msg_tree(ptr noundef %35, ptr noundef %36, i32 noundef %37)
  store ptr %38, ptr %8, align 8
  %39 = load ptr, ptr %9, align 8
  call void @hostlist_destroy(ptr noundef %39)
  %40 = load ptr, ptr %8, align 8
  store ptr %40, ptr %4, align 8
  store i32 1, ptr %10, align 4
  br label %41

41:                                               ; preds = %34, %32, %25, %15
  call void @llvm.lifetime.end.p0(i64 8, ptr %9) #12
  call void @llvm.lifetime.end.p0(i64 8, ptr %8) #12
  %42 = load ptr, ptr %4, align 8
  ret ptr %42
}