; Function Attrs: nounwind uwtable
define dso_local ptr @slurm_send_recv_msgs(ptr noundef %0, ptr noundef %1, i32 noundef %2) local_unnamed_addr #1 {
  %4 = tail call zeroext i1 @running_in_daemon() #19
  br i1 %4, label %9, label %5

5:                                                ; preds = %3
  %6 = tail call i32 @topology_g_init() #19
  %.not = icmp eq i32 %6, 0
  br i1 %.not, label %9, label %7

7:                                                ; preds = %5
  %8 = tail call i32 (ptr, ...) @error(ptr noundef nonnull @.str.61) #19
  br label %19

9:                                                ; preds = %5, %3
  %.not11 = icmp eq ptr %0, null
  br i1 %.not11, label %11, label %10

10:                                               ; preds = %9
  %char0 = load i8, ptr %0, align 1
  %.not12 = icmp eq i8 %char0, 0
  br i1 %.not12, label %11, label %13

11:                                               ; preds = %10, %9
  %12 = tail call i32 (ptr, ...) @error(ptr noundef nonnull @.str.62) #19
  br label %19

13:                                               ; preds = %10
  %14 = tail call ptr @hostlist_create(ptr noundef nonnull %0) #19
  %.not13 = icmp eq ptr %14, null
  br i1 %.not13, label %15, label %17

15:                                               ; preds = %13
  %16 = tail call i32 (ptr, ...) @error(ptr noundef nonnull @.str.63) #19
  br label %19

17:                                               ; preds = %13
  %18 = tail call ptr @start_msg_tree(ptr noundef nonnull %14, ptr noundef %1, i32 noundef %2) #19
  tail call void @hostlist_destroy(ptr noundef nonnull %14) #19
  br label %19

19:                                               ; preds = %17, %15, %11, %7
  %.0 = phi ptr [ %18, %17 ], [ null, %15 ], [ null, %11 ], [ null, %7 ]
  ret ptr %.0
}